target datalayout = "e-m:e-p270:32:32-p271:32:32-p272:64:64-i64:64-i128:128-f80:128-n8:16:32:64-S128"
target triple = "x86_64-pc-linux-gnu"

%struct.pmix_hash_type_methods_t = type { ptr, ptr }
%struct.pmix_hash_table_t = type { %struct.pmix_object_t, ptr, ptr, i64, i64, i64, i32, i32, i32, i32, ptr }
%struct.pmix_object_t = type { %union.pthread_mutex_t, ptr, i32, %struct.pmix_tma }
%union.pthread_mutex_t = type { %struct.__pthread_mutex_s }
%struct.__pthread_mutex_s = type { i32, i32, i32, i32, i32, i16, i16, %struct.__pthread_internal_list }
%struct.__pthread_internal_list = type { ptr, ptr }
%struct.pmix_tma = type { ptr, ptr, ptr, ptr, ptr, ptr, ptr, ptr }
%struct.pmix_hash_element_t = type { i32, %union.anon, ptr, ptr }
%union.anon = type { %struct.anon }
%struct.anon = type { ptr, i64 }

@pmix_hash_type_methods_uint64 = internal constant %struct.pmix_hash_type_methods_t { ptr null, ptr @pmix_hash_hash_elt_uint64 }, align 8

; Function Attrs: inlinehint nounwind uwtable
define internal ptr @pmix_obj_get_tma(ptr noundef %0) #2 {
  %2 = alloca ptr, align 8
  %3 = alloca ptr, align 8
  store ptr %0, ptr %3, align 8, !tbaa !30
  %4 = load ptr, ptr %3, align 8, !tbaa !30
  %5 = getelementptr inbounds nuw %struct.pmix_object_t, ptr %4, i32 0, i32 3
  %6 = getelementptr inbounds nuw %struct.pmix_tma, ptr %5, i32 0, i32 0
  %7 = load ptr, ptr %6, align 8, !tbaa !32
  %8 = icmp ne ptr %7, null
  br i1 %8, label %9, label %12

9:                                                ; preds = %1
  %10 = load ptr, ptr %3, align 8, !tbaa !30
  %11 = getelementptr inbounds nuw %struct.pmix_object_t, ptr %10, i32 0, i32 3
  store ptr %11, ptr %2, align 8
  br label %13

12:                                               ; preds = %1
  store ptr null, ptr %2, align 8
  br label %13

13:                                               ; preds = %12, %9
  %14 = load ptr, ptr %2, align 8
  ret ptr %14
}

; Function Attrs: nounwind uwtable
define i32 @pmix_hash_table_set_value_uint64(ptr noundef %0, i64 noundef %1, ptr noundef %2) #0 {
  %4 = alloca i32, align 4
  %5 = alloca ptr, align 8
  %6 = alloca i64, align 8
  %7 = alloca ptr, align 8
  %8 = alloca i32, align 4
  %9 = alloca i64, align 8
  %10 = alloca i64, align 8
  %11 = alloca ptr, align 8
  %12 = alloca ptr, align 8
  %13 = alloca i32, align 4
  store ptr %0, ptr %5, align 8, !tbaa !3
  store i64 %1, ptr %6, align 8, !tbaa !28
  store ptr %2, ptr %7, align 8, !tbaa !42
  call void @llvm.lifetime.start.p0(i64 4, ptr %8) #9
  call void @llvm.lifetime.start.p0(i64 8, ptr %9) #9
  call void @llvm.lifetime.start.p0(i64 8, ptr %10) #9
  %14 = load ptr, ptr %5, align 8, !tbaa !3
  %15 = getelementptr inbounds nuw %struct.pmix_hash_table_t, ptr %14, i32 0, i32 3
  %16 = load i64, ptr %15, align 8, !tbaa !20
  store i64 %16, ptr %10, align 8, !tbaa !28
  call void @llvm.lifetime.start.p0(i64 8, ptr %11) #9
  call void @llvm.lifetime.start.p0(i64 8, ptr %12) #9
  %17 = load ptr, ptr %5, align 8, !tbaa !3
  %18 = getelementptr inbounds nuw %struct.pmix_hash_table_t, ptr %17, i32 0, i32 0
  %19 = call ptr @pmix_obj_get_tma(ptr noundef %18)
  store ptr %19, ptr %12, align 8, !tbaa !26
  %20 = load ptr, ptr %5, align 8, !tbaa !3
  %21 = getelementptr inbounds nuw %struct.pmix_hash_table_t, ptr %20, i32 0, i32 10
  store ptr @pmix_hash_type_methods_uint64, ptr %21, align 8, !tbaa !25
  %22 = load i64, ptr %6, align 8, !tbaa !28
  %23 = load i64, ptr %10, align 8, !tbaa !28
  %24 = urem i64 %22, %23
  store i64 %24, ptr %9, align 8, !tbaa !28
  br label %25

25:                                               ; preds = %84, %3
  %26 = load i64, ptr %9, align 8, !tbaa !28
  %27 = load i64, ptr %10, align 8, !tbaa !28
  %28 = icmp eq i64 %26, %27
  br i1 %28, label %29, label %30

29:                                               ; preds = %25
  store i64 0, ptr %9, align 8, !tbaa !28
  br label %30

30:                                               ; preds = %29, %25
  %31 = load ptr, ptr %5, align 8, !tbaa !3
  %32 = getelementptr inbounds nuw %struct.pmix_hash_table_t, ptr %31, i32 0, i32 2
  %33 = load ptr, ptr %32, align 8, !tbaa !8
  %34 = load i64, ptr %9, align 8, !tbaa !28
  %35 = getelementptr inbounds nuw %struct.pmix_hash_element_t, ptr %33, i64 %34
  store ptr %35, ptr %11, align 8, !tbaa !34
  %36 = load ptr, ptr %11, align 8, !tbaa !34
  %37 = getelementptr inbounds nuw %struct.pmix_hash_element_t, ptr %36, i32 0, i32 0
  %38 = load i32, ptr %37, align 8, !tbaa !35
  %39 = icmp ne i32 %38, 0
  br i1 %39, label %71, label %40

40:                                               ; preds = %30
  %41 = load i64, ptr %6, align 8, !tbaa !28
  %42 = load ptr, ptr %11, align 8, !tbaa !34
  %43 = getelementptr inbounds nuw %struct.pmix_hash_element_t, ptr %42, i32 0, i32 1
  store i64 %41, ptr %43, align 8, !tbaa !43
  %44 = load ptr, ptr %7, align 8, !tbaa !42
  %45 = load ptr, ptr %11, align 8, !tbaa !34
  %46 = getelementptr inbounds nuw %struct.pmix_hash_element_t, ptr %45, i32 0, i32 3
  store ptr %44, ptr %46, align 8, !tbaa !39
  %47 = load ptr, ptr %11, align 8, !tbaa !34
  %48 = getelementptr inbounds nuw %struct.pmix_hash_element_t, ptr %47, i32 0, i32 0
  store i32 1, ptr %48, align 8, !tbaa !35
  %49 = load ptr, ptr %12, align 8, !tbaa !26
  %50 = load ptr, ptr %11, align 8, !tbaa !34
  %51 = getelementptr inbounds nuw %struct.pmix_hash_element_t, ptr %50, i32 0, i32 2
  store ptr %49, ptr %51, align 8, !tbaa !44
  %52 = load ptr, ptr %5, align 8, !tbaa !3
  %53 = getelementptr inbounds nuw %struct.pmix_hash_table_t, ptr %52, i32 0, i32 4
  %54 = load i64, ptr %53, align 8, !tbaa !19
  %55 = add i64 %54, 1
  store i64 %55, ptr %53, align 8, !tbaa !19
  %56 = load ptr, ptr %5, align 8, !tbaa !3
  %57 = getelementptr inbounds nuw %struct.pmix_hash_table_t, ptr %56, i32 0, i32 4
  %58 = load i64, ptr %57, align 8, !tbaa !19
  %59 = load ptr, ptr %5, align 8, !tbaa !3
  %60 = getelementptr inbounds nuw %struct.pmix_hash_table_t, ptr %59, i32 0, i32 5
  %61 = load i64, ptr %60, align 8, !tbaa !18
  %62 = icmp uge i64 %58, %61
  br i1 %62, label %63, label %70

63:                                               ; preds = %40
  %64 = load ptr, ptr %5, align 8, !tbaa !3
  %65 = call i32 @pmix_hash_grow(ptr noundef %64)
  store i32 %65, ptr %8, align 4, !tbaa !29
  %66 = icmp ne i32 0, %65
  br i1 %66, label %67, label %69

67:                                               ; preds = %63
  %68 = load i32, ptr %8, align 4, !tbaa !29
  store i32 %68, ptr %4, align 4
  store i32 1, ptr %13, align 4
  br label %87

69:                                               ; preds = %63
  br label %70

70:                                               ; preds = %69, %40
  store i32 0, ptr %4, align 4
  store i32 1, ptr %13, align 4
  br label %87

71:                                               ; preds = %30
  %72 = load ptr, ptr %11, align 8, !tbaa !34
  %73 = getelementptr inbounds nuw %struct.pmix_hash_element_t, ptr %72, i32 0, i32 1
  %74 = load i64, ptr %73, align 8, !tbaa !43
  %75 = load i64, ptr %6, align 8, !tbaa !28
  %76 = icmp eq i64 %74, %75
  br i1 %76, label %77, label %81

77:                                               ; preds = %71
  %78 = load ptr, ptr %7, align 8, !tbaa !42
  %79 = load ptr, ptr %11, align 8, !tbaa !34
  %80 = getelementptr inbounds nuw %struct.pmix_hash_element_t, ptr %79, i32 0, i32 3
  store ptr %78, ptr %80, align 8, !tbaa !39
  store i32 0, ptr %4, align 4
  store i32 1, ptr %13, align 4
  br label %87

81:                                               ; preds = %71
  br label %82

82:                                               ; preds = %81
  br label %83

83:                                               ; preds = %82
  br label %84

84:                                               ; preds = %83
  %85 = load i64, ptr %9, align 8, !tbaa !28
  %86 = add i64 %85, 1
  store i64 %86, ptr %9, align 8, !tbaa !28
  br label %25

87:                                               ; preds = %77, %70, %67
  call void @llvm.lifetime.end.p0(i64 8, ptr %12) #9
  call void @llvm.lifetime.end.p0(i64 8, ptr %11) #9
  call void @llvm.lifetime.end.p0(i64 8, ptr %10) #9
  call void @llvm.lifetime.end.p0(i64 8, ptr %9) #9
  call void @llvm.lifetime.end.p0(i64 4, ptr %8) #9
  %88 = load i32, ptr %4, align 4
  ret i32 %88
}