; Function Attrs: nounwind uwtable
define range(i32 -29, 1) i32 @pmix_hash_table_set_value_uint64(ptr noundef %0, i64 noundef %1, ptr noundef %2) local_unnamed_addr #1 {
  %4 = getelementptr inbounds nuw i8, ptr %0, i64 136
  %5 = load i64, ptr %4, align 8, !tbaa !11
  %6 = getelementptr inbounds nuw i8, ptr %0, i64 56
  %7 = load ptr, ptr %6, align 8, !tbaa !3
  %.not.i = icmp eq ptr %7, null
  %..i = select i1 %.not.i, ptr null, ptr %6
  %8 = getelementptr inbounds nuw i8, ptr %0, i64 176
  store ptr @pmix_hash_type_methods_uint64, ptr %8, align 8, !tbaa !21
  %9 = urem i64 %1, %5
  %10 = getelementptr inbounds nuw i8, ptr %0, i64 128
  %11 = load ptr, ptr %10, align 8, !tbaa !17
  %12 = getelementptr inbounds nuw %struct.pmix_hash_element_t, ptr %11, i64 %9
  %13 = load i32, ptr %12, align 8, !tbaa !18
  %.not32 = icmp eq i32 %13, 0
  br i1 %.not32, label %._crit_edge, label %.lr.ph

14:                                               ; preds = %.lr.ph
  %15 = add i64 %spec.store.select33, 1
  %16 = icmp eq i64 %15, %5
  %spec.store.select = select i1 %16, i64 0, i64 %15
  %17 = getelementptr inbounds nuw %struct.pmix_hash_element_t, ptr %11, i64 %spec.store.select
  %18 = load i32, ptr %17, align 8, !tbaa !18
  %.not = icmp eq i32 %18, 0
  br i1 %.not, label %._crit_edge, label %.lr.ph

._crit_edge:                                      ; preds = %14, %3
  %.lcssa = phi ptr [ %12, %3 ], [ %17, %14 ]
  %19 = getelementptr inbounds nuw i8, ptr %.lcssa, i64 8
  store i64 %1, ptr %19, align 8, !tbaa !36
  %20 = getelementptr inbounds nuw i8, ptr %.lcssa, i64 32
  store ptr %2, ptr %20, align 8, !tbaa !24
  store i32 1, ptr %.lcssa, align 8, !tbaa !18
  %21 = getelementptr inbounds nuw i8, ptr %.lcssa, i64 24
  store ptr %..i, ptr %21, align 8, !tbaa !38
  %22 = getelementptr inbounds nuw i8, ptr %0, i64 144
  %23 = load i64, ptr %22, align 8, !tbaa !27
  %24 = add i64 %23, 1
  store i64 %24, ptr %22, align 8, !tbaa !27
  %25 = getelementptr inbounds nuw i8, ptr %0, i64 152
  %26 = load i64, ptr %25, align 8, !tbaa !35
  %.not29 = icmp ult i64 %24, %26
  br i1 %.not29, label %29, label %27

27:                                               ; preds = %._crit_edge
  %28 = tail call fastcc i32 @pmix_hash_grow(ptr noundef nonnull %0)
  %.not30 = icmp eq i32 %28, 0
  br i1 %.not30, label %29, label %36

29:                                               ; preds = %27, %._crit_edge
  br label %36

.lr.ph:                                           ; preds = %3, %14
  %30 = phi ptr [ %17, %14 ], [ %12, %3 ]
  %spec.store.select33 = phi i64 [ %spec.store.select, %14 ], [ %9, %3 ]
  %31 = getelementptr inbounds nuw i8, ptr %30, i64 8
  %32 = load i64, ptr %31, align 8, !tbaa !36
  %33 = icmp eq i64 %32, %1
  br i1 %33, label %34, label %14

34:                                               ; preds = %.lr.ph
  %35 = getelementptr inbounds nuw i8, ptr %30, i64 32
  store ptr %2, ptr %35, align 8, !tbaa !24
  br label %36

36:                                               ; preds = %27, %34, %29
  %.0 = phi i32 [ 0, %34 ], [ 0, %29 ], [ %28, %27 ]
  ret i32 %.0
}